target datalayout = "e-m:e-p270:32:32-p271:32:32-p272:64:64-i64:64-i128:128-f80:128-n8:16:32:64-S128"
target triple = "x86_64-unknown-linux-gnu"

%struct.rand_data = type { ptr, i64, i64, i64, i32, i32, ptr, i32, i32, i32, i32, i32, i32, i32, i32, i32, i32, i32, i8 }

; Function Attrs: fn_ret_thunk_extern nounwind null_pointer_is_valid
define dso_local void @jent_entropy_collector_free(ptr noundef %0) #0 align 16 {
  %2 = alloca ptr, align 8
  store ptr %0, ptr %2, align 8
  %3 = load ptr, ptr %2, align 8
  %4 = getelementptr inbounds %struct.rand_data, ptr %3, i32 0, i32 6
  %5 = load ptr, ptr %4, align 8
  call void @jent_kvzfree(ptr noundef %5, i32 noundef 2048)
  %6 = load ptr, ptr %2, align 8
  %7 = getelementptr inbounds %struct.rand_data, ptr %6, i32 0, i32 6
  store ptr null, ptr %7, align 8
  %8 = load ptr, ptr %2, align 8
  call void @jent_zfree(ptr noundef %8)
  ret void
}

; Function Attrs: fn_ret_thunk_extern nounwind null_pointer_is_valid
define internal i32 @jent_health_failure(ptr noundef %0) #0 align 16 {
  %2 = alloca ptr, align 8
  store ptr %0, ptr %2, align 8
  ret i32 0
}

; Function Attrs: fn_ret_thunk_extern nounwind null_pointer_is_valid
define internal void @jent_apt_reset(ptr noundef %0, i32 noundef %1) #0 align 16 {
  %3 = alloca ptr, align 8
  %4 = alloca i32, align 4
  store ptr %0, ptr %3, align 8
  store i32 %1, ptr %4, align 4
  %5 = load ptr, ptr %3, align 8
  %6 = getelementptr inbounds %struct.rand_data, ptr %5, i32 0, i32 15
  store i32 0, ptr %6, align 8
  %7 = load i32, ptr %4, align 4
  %8 = load ptr, ptr %3, align 8
  %9 = getelementptr inbounds %struct.rand_data, ptr %8, i32 0, i32 16
  store i32 %7, ptr %9, align 4
  %10 = load ptr, ptr %3, align 8
  %11 = getelementptr inbounds %struct.rand_data, ptr %10, i32 0, i32 14
  store i32 0, ptr %11, align 4
  ret void
}

; Function Attrs: fn_ret_thunk_extern nounwind null_pointer_is_valid
define dso_local i32 @jent_entropy_init(i32 noundef %0, i32 noundef %1, ptr noundef %2, ptr noundef %3) #0 align 16 {
  %5 = alloca i32, align 4
  %6 = alloca i32, align 4
  %7 = alloca i32, align 4
  %8 = alloca ptr, align 8
  %9 = alloca ptr, align 8
  %10 = alloca ptr, align 8
  %11 = alloca i32, align 4
  %12 = alloca i32, align 4
  %13 = alloca i32, align 4
  %14 = alloca i32, align 4
  %15 = alloca i32, align 4
  %16 = alloca i64, align 8
  %17 = alloca i64, align 8
  %18 = alloca i64, align 8
  store i32 %0, ptr %6, align 4
  store i32 %1, ptr %7, align 4
  store ptr %2, ptr %8, align 8
  store ptr %3, ptr %9, align 8
  store ptr null, ptr %10, align 8, !annotation !5
  %19 = load ptr, ptr %9, align 8
  store ptr %19, ptr %10, align 8
  store i32 0, ptr %11, align 4, !annotation !5
  store i32 0, ptr %12, align 4, !annotation !5
  store i32 0, ptr %12, align 4
  store i32 0, ptr %13, align 4, !annotation !5
  store i32 0, ptr %13, align 4
  store i32 0, ptr %14, align 4, !annotation !5
  store i32 0, ptr %14, align 4
  store i32 0, ptr %15, align 4, !annotation !5
  %20 = load ptr, ptr %10, align 8
  %21 = icmp ne ptr %20, null
  br i1 %21, label %31, label %22

22:                                               ; preds = %4
  %23 = load i32, ptr %6, align 4
  %24 = load i32, ptr %7, align 4
  %25 = load ptr, ptr %8, align 8
  %26 = call ptr @jent_entropy_collector_alloc(i32 noundef %23, i32 noundef %24, ptr noundef %25)
  store ptr %26, ptr %10, align 8
  %27 = load ptr, ptr %10, align 8
  %28 = icmp ne ptr %27, null
  br i1 %28, label %30, label %29

29:                                               ; preds = %22
  store i32 12, ptr %5, align 4
  br label %114

30:                                               ; preds = %22
  store i32 1, ptr %14, align 4
  br label %48

31:                                               ; preds = %4
  %32 = load ptr, ptr %10, align 8
  call void @jent_apt_reset(ptr noundef %32, i32 noundef 0)
  %33 = load ptr, ptr %10, align 8
  %34 = getelementptr inbounds %struct.rand_data, ptr %33, i32 0, i32 18
  %35 = load i8, ptr %34, align 4
  %36 = and i8 %35, -2
  %37 = or i8 %36, 0
  store i8 %37, ptr %34, align 4
  %38 = load ptr, ptr %10, align 8
  %39 = getelementptr inbounds %struct.rand_data, ptr %38, i32 0, i32 11
  store i32 0, ptr %39, align 8
  %40 = load ptr, ptr %10, align 8
  %41 = getelementptr inbounds %struct.rand_data, ptr %40, i32 0, i32 17
  %42 = load i32, ptr %41, align 8
  %43 = and i32 %42, -2
  store i32 %43, ptr %41, align 8
  %44 = load ptr, ptr %10, align 8
  %45 = getelementptr inbounds %struct.rand_data, ptr %44, i32 0, i32 17
  %46 = load i32, ptr %45, align 8
  %47 = and i32 %46, -3
  store i32 %47, ptr %45, align 8
  br label %48

48:                                               ; preds = %31, %30
  store i32 0, ptr %11, align 4
  br label %49

49:                                               ; preds = %89, %48
  %50 = load i32, ptr %11, align 4
  %51 = icmp sgt i32 1124, %50
  br i1 %51, label %52, label %92

52:                                               ; preds = %49
  store i64 0, ptr %16, align 8, !annotation !5
  store i64 0, ptr %16, align 8
  store i64 0, ptr %17, align 8, !annotation !5
  store i64 0, ptr %17, align 8
  store i64 0, ptr %18, align 8, !annotation !5
  store i64 0, ptr %18, align 8
  %53 = load ptr, ptr %10, align 8
  %54 = call i32 @jent_measure_jitter(ptr noundef %53, ptr noundef %18)
  %55 = load ptr, ptr %10, align 8
  %56 = getelementptr inbounds %struct.rand_data, ptr %55, i32 0, i32 1
  %57 = load i64, ptr %56, align 8
  store i64 %57, ptr %17, align 8
  %58 = load ptr, ptr %10, align 8
  %59 = getelementptr inbounds %struct.rand_data, ptr %58, i32 0, i32 1
  %60 = load i64, ptr %59, align 8
  %61 = load i64, ptr %18, align 8
  %62 = sub i64 %60, %61
  store i64 %62, ptr %16, align 8
  %63 = load i64, ptr %16, align 8
  %64 = icmp ne i64 %63, 0
  br i1 %64, label %65, label %68

65:                                               ; preds = %52
  %66 = load i64, ptr %17, align 8
  %67 = icmp ne i64 %66, 0
  br i1 %67, label %69, label %68

68:                                               ; preds = %65, %52
  store i32 1, ptr %13, align 4
  br label %107

69:                                               ; preds = %65
  %70 = load i64, ptr %18, align 8
  %71 = icmp ne i64 %70, 0
  br i1 %71, label %72, label %76

72:                                               ; preds = %69
  %73 = load i64, ptr %17, align 8
  %74 = load i64, ptr %16, align 8
  %75 = icmp eq i64 %73, %74
  br i1 %75, label %76, label %77

76:                                               ; preds = %72, %69
  store i32 2, ptr %13, align 4
  br label %107

77:                                               ; preds = %72
  %78 = load i32, ptr %11, align 4
  %79 = icmp slt i32 %78, 100
  br i1 %79, label %80, label %81

80:                                               ; preds = %77
  br label %89

81:                                               ; preds = %77
  %82 = load i64, ptr %17, align 8
  %83 = load i64, ptr %16, align 8
  %84 = icmp ugt i64 %82, %83
  br i1 %84, label %88, label %85

85:                                               ; preds = %81
  %86 = load i32, ptr %12, align 4
  %87 = add i32 %86, 1
  store i32 %87, ptr %12, align 4
  br label %88

88:                                               ; preds = %85, %81
  br label %89

89:                                               ; preds = %88, %80
  %90 = load i32, ptr %11, align 4
  %91 = add i32 %90, 1
  store i32 %91, ptr %11, align 4
  br label %49, !llvm.loop !9

92:                                               ; preds = %49
  %93 = load i32, ptr %12, align 4
  %94 = icmp sgt i32 %93, 3
  br i1 %94, label %95, label %96

95:                                               ; preds = %92
  store i32 3, ptr %13, align 4
  br label %107

96:                                               ; preds = %92
  %97 = load ptr, ptr %10, align 8
  %98 = call i32 @jent_health_failure(ptr noundef %97)
  store i32 %98, ptr %15, align 4
  %99 = load i32, ptr %15, align 4
  %100 = icmp ne i32 %99, 0
  br i1 %100, label %101, label %106

101:                                              ; preds = %96
  %102 = load i32, ptr %15, align 4
  %103 = and i32 %102, 1
  %104 = icmp ne i32 %103, 0
  %105 = select i1 %104, i32 10, i32 9
  store i32 %105, ptr %13, align 4
  br label %107

106:                                              ; preds = %96
  br label %107

107:                                              ; preds = %106, %101, %95, %76, %68
  %108 = load i32, ptr %14, align 4
  %109 = icmp ne i32 %108, 0
  br i1 %109, label %110, label %112

110:                                              ; preds = %107
  %111 = load ptr, ptr %10, align 8
  call void @jent_entropy_collector_free(ptr noundef %111)
  br label %112

112:                                              ; preds = %110, %107
  %113 = load i32, ptr %13, align 4
  store i32 %113, ptr %5, align 4
  br label %114

114:                                              ; preds = %112, %29
  %115 = load i32, ptr %5, align 4
  ret i32 %115
}