; Function Attrs: fn_ret_thunk_extern nounwind null_pointer_is_valid
define dso_local i32 @jent_entropy_init(i32 noundef %0, i32 noundef %1, ptr noundef %2, ptr noundef %3) local_unnamed_addr #0 align 16 {
  %5 = alloca i64, align 8
  %.not.not = icmp eq ptr %3, null
  br i1 %.not.not, label %6, label %8

6:                                                ; preds = %4
  %7 = tail call ptr @jent_entropy_collector_alloc(i32 noundef %0, i32 noundef %1, ptr noundef %2)
  %.not42 = icmp eq ptr %7, null
  br i1 %.not42, label %37, label %19

8:                                                ; preds = %4
  %9 = getelementptr inbounds i8, ptr %3, i64 80
  store i32 0, ptr %9, align 8
  %10 = getelementptr inbounds i8, ptr %3, i64 84
  store i32 0, ptr %10, align 4
  %11 = getelementptr inbounds i8, ptr %3, i64 76
  store i32 0, ptr %11, align 4
  %12 = getelementptr inbounds i8, ptr %3, i64 92
  %13 = load i8, ptr %12, align 4
  %14 = and i8 %13, -2
  store i8 %14, ptr %12, align 4
  %15 = getelementptr inbounds i8, ptr %3, i64 64
  store i32 0, ptr %15, align 8
  %16 = getelementptr inbounds i8, ptr %3, i64 88
  %17 = load i32, ptr %16, align 8
  %18 = and i32 %17, -4
  store i32 %18, ptr %16, align 8
  br label %19

19:                                               ; preds = %6, %8
  %.035 = phi ptr [ %3, %8 ], [ %7, %6 ]
  %20 = getelementptr inbounds i8, ptr %.035, i64 8
  br label %21

21:                                               ; preds = %19, %28
  %.03349 = phi i32 [ 0, %19 ], [ %.1, %28 ]
  %.03448 = phi i32 [ 0, %19 ], [ %31, %28 ]
  store i64 0, ptr %5, align 8
  %22 = call fastcc i32 @jent_measure_jitter(ptr noundef nonnull %.035, ptr noundef nonnull %5), !range !5
  %23 = load i64, ptr %20, align 8
  %24 = load i64, ptr %5, align 8
  %25 = icmp ne i64 %23, %24
  %26 = icmp ne i64 %23, 0
  %or.cond = and i1 %26, %25
  br i1 %or.cond, label %27, label %.loopexit

27:                                               ; preds = %21
  %.not43 = icmp eq i64 %24, 0
  br i1 %.not43, label %.loopexit, label %28

28:                                               ; preds = %27
  %29 = icmp ugt i32 %.03448, 99
  %.not44 = icmp ult i64 %23, %24
  %or.cond46 = and i1 %29, %.not44
  %30 = zext i1 %or.cond46 to i32
  %.1 = add i32 %.03349, %30
  %31 = add nuw nsw i32 %.03448, 1
  %exitcond.not = icmp eq i32 %31, 1124
  br i1 %exitcond.not, label %32, label %21, !llvm.loop !9

32:                                               ; preds = %28
  %33 = icmp sgt i32 %.1, 3
  %spec.select = select i1 %33, i32 3, i32 0
  br label %.loopexit

.loopexit:                                        ; preds = %27, %21, %32
  %.032 = phi i32 [ %spec.select, %32 ], [ 2, %27 ], [ 1, %21 ]
  br i1 %.not.not, label %34, label %37

34:                                               ; preds = %.loopexit
  %35 = getelementptr inbounds i8, ptr %.035, i64 40
  %36 = load ptr, ptr %35, align 8
  call void @jent_kvzfree(ptr noundef %36, i32 noundef 2048) #4
  store ptr null, ptr %35, align 8
  call void @jent_zfree(ptr noundef nonnull %.035) #4
  br label %37

37:                                               ; preds = %.loopexit, %34, %6
  %.036 = phi i32 [ 12, %6 ], [ %.032, %34 ], [ %.032, %.loopexit ]
  ret i32 %.036
}